Certificate:
    Data:
        Version: 3 (0x2)
        Serial Number: 13001181552037769560 (0xb46d79bd0592b158)
    Signature Algorithm: sha1WithRSAEncryption
        Issuer: C=CN, ST=Henan, O=XD, OU=shanyuan, CN=ca/emailAddress=a@b.c
        Validity
            Not Before: Apr 25 10:47:18 2015 GMT
            Not After : Apr 24 10:47:18 2016 GMT
        Subject: C=CN, ST=Henan, O=XD, OU=shanyuan, CN=client/emailAddress=a1@b.c
        Subject Public Key Info:
            Public Key Algorithm: id-ecPublicKey
                Public-Key: (192 bit)
                pub: 
                    04:af:bf:8b:d0:04:f3:ab:3a:e3:53:ef:b5:c6:67:
                    d8:07:a0:1e:a4:08:ee:ce:93:8c:7a:6c:87:ea:de:
                    f2:e9:87:56:3b:7a:67:ba:b9:43:0d:cb:a0:0b:9c:
                    00:d1:40:4f
                ASN1 OID: prime192v1
        X509v3 extensions:
            X509v3 Basic Constraints: 
                CA:FALSE
            Netscape Comment: 
                OpenSSL Generated Certificate
            X509v3 Subject Key Identifier: 
                3D:6C:66:C9:79:8C:E2:E1:46:40:8D:BE:A4:A7:1F:8A:00:43:33:8C
            X509v3 Authority Key Identifier: 
                keyid:5D:E0:C0:89:07:3F:53:E8:06:EC:A3:1C:E1:BF:24:AA:8C:58:2F:42

    Signature Algorithm: sha1WithRSAEncryption
         9d:d8:6b:1a:7e:e0:b4:b9:0f:c6:50:1e:51:99:24:65:88:06:
         7d:31:87:ad:ac:76:c5:af:ea:fe:a4:40:f9:f7:75:11:67:4c:
         27:d9:b1:d6:02:90:14:2c:d2:1c:ea:e1:c8:0c:67:49:16:0f:
         0a:e3:3f:eb:0a:f1:ae:79:51:42:45:4f:6b:3d:db:94:27:4c:
         85:e8:b4:05:0a:4f:ff:5e:44:16:3f:0a:bd:e8:f3:24:89:3f:
         bc:33:f8:95:dd:ec:a0:20:6d:04:ba:e6:f4:aa:e0:0c:d1:f1:
         db:94:66:8a:b2:d5:81:d0:d1:46:74:ce:ce:8c:c5:53:4d:dd:
         51:b5
-----BEGIN CERTIFICATE-----
MIICZzCCAdCgAwIBAgIJALRteb0FkrFYMA0GCSqGSIb3DQEBBQUAMGAxCzAJBgNV
BAYTAkNOMQ4wDAYDVQQIDAVIZW5hbjELMAkGA1UECgwCWEQxETAPBgNVBAsMCHNo
YW55dWFuMQswCQYDVQQDDAJjYTEUMBIGCSqGSIb3DQEJARYFYUBiLmMwHhcNMTUw
NDI1MTA0NzE4WhcNMTYwNDI0MTA0NzE4WjBlMQswCQYDVQQGEwJDTjEOMAwGA1UE
CAwFSGVuYW4xCzAJBgNVBAoMAlhEMREwDwYDVQQLDAhzaGFueXVhbjEPMA0GA1UE
AwwGY2xpZW50MRUwEwYJKoZIhvcNAQkBFgZhMUBiLmMwSTATBgcqhkjOPQIBBggq
hkjOPQMBAQMyAASvv4vQBPOrOuNT77XGZ9gHoB6kCO7Ok4x6bIfq3vLph1Y7eme6
uUMNy6ALnADRQE+jezB5MAkGA1UdEwQCMAAwLAYJYIZIAYb4QgENBB8WHU9wZW5T
U0wgR2VuZXJhdGVkIENlcnRpZmljYXRlMB0GA1UdDgQWBBQ9bGbJeYzi4UZAjb6k
px+KAEMzjDAfBgNVHSMEGDAWgBRd4MCJBz9T6AbsoxzhvySqjFgvQjANBgkqhkiG
9w0BAQUFAAOBgQCd2GsafuC0uQ/GUB5RmSRliAZ9MYetrHbFr+r+pED593URZ0wn
2bHWApAULNIc6uHIDGdJFg8K4z/rCvGueVFCRU9rPduUJ0yF6LQFCk//XkQWPwq9
6PMkiT+8M/iV3eygIG0Euub0quAM0fHblGaKstWB0NFGdM7OjMVTTd1RtQ==
-----END CERTIFICATE-----
