Certificate:
    Data:
        Version: 3 (0x2)
        Serial Number: 13001181552037769561 (0xb46d79bd0592b159)
    Signature Algorithm: sha1WithRSAEncryption
        Issuer: C=CN, ST=Henan, O=XD, OU=shanyuan, CN=ca/emailAddress=a@b.c
        Validity
            Not Before: Apr 25 10:49:50 2015 GMT
            Not After : Apr 24 10:49:50 2016 GMT
        Subject: C=CN, ST=Henan, O=XD, OU=shanyuan, CN=server/emailAddress=a3@b.c
        Subject Public Key Info:
            Public Key Algorithm: id-ecPublicKey
                Public-Key: (192 bit)
                pub: 
                    04:fb:65:e4:3c:7e:d3:b5:65:5f:ac:ec:ae:b0:b1:
                    69:85:20:b1:ec:64:ab:f9:84:38:02:16:90:04:bc:
                    55:09:80:8c:24:2e:33:71:3e:a2:2f:6d:d2:cb:72:
                    00:0b:eb:5e
                ASN1 OID: prime192v1
        X509v3 extensions:
            X509v3 Basic Constraints: 
                CA:FALSE
            Netscape Comment: 
                OpenSSL Generated Certificate
            X509v3 Subject Key Identifier: 
                29:1E:00:EA:F0:1B:FB:EE:E7:BB:4A:27:17:55:FF:B3:10:C6:BB:78
            X509v3 Authority Key Identifier: 
                keyid:5D:E0:C0:89:07:3F:53:E8:06:EC:A3:1C:E1:BF:24:AA:8C:58:2F:42

    Signature Algorithm: sha1WithRSAEncryption
         03:c5:ef:66:17:0f:dc:2e:70:77:e9:0b:72:a2:d4:a3:fa:65:
         e7:d9:22:75:ab:d3:f4:08:95:c7:0f:ec:8a:90:28:4d:09:c1:
         ac:db:64:d6:61:75:c0:9d:59:26:dd:6e:3e:d3:73:3a:c0:d6:
         2a:aa:ab:cd:10:1d:e3:21:53:57:42:76:e9:aa:c3:f6:04:56:
         c4:29:b6:ee:28:ea:34:89:9e:fb:8a:1e:d3:2c:3e:0f:c1:5c:
         ff:4e:44:a5:52:d8:3c:0f:64:fc:21:7e:ed:17:1e:12:bc:8c:
         29:35:d0:dc:3d:97:2c:2d:7e:6d:32:d1:b7:b2:6d:d3:81:45:
         92:40
-----BEGIN CERTIFICATE-----
MIICZzCCAdCgAwIBAgIJALRteb0FkrFZMA0GCSqGSIb3DQEBBQUAMGAxCzAJBgNV
BAYTAkNOMQ4wDAYDVQQIDAVIZW5hbjELMAkGA1UECgwCWEQxETAPBgNVBAsMCHNo
YW55dWFuMQswCQYDVQQDDAJjYTEUMBIGCSqGSIb3DQEJARYFYUBiLmMwHhcNMTUw
NDI1MTA0OTUwWhcNMTYwNDI0MTA0OTUwWjBlMQswCQYDVQQGEwJDTjEOMAwGA1UE
CAwFSGVuYW4xCzAJBgNVBAoMAlhEMREwDwYDVQQLDAhzaGFueXVhbjEPMA0GA1UE
AwwGc2VydmVyMRUwEwYJKoZIhvcNAQkBFgZhM0BiLmMwSTATBgcqhkjOPQIBBggq
hkjOPQMBAQMyAAT7ZeQ8ftO1ZV+s7K6wsWmFILHsZKv5hDgCFpAEvFUJgIwkLjNx
PqIvbdLLcgAL616jezB5MAkGA1UdEwQCMAAwLAYJYIZIAYb4QgENBB8WHU9wZW5T
U0wgR2VuZXJhdGVkIENlcnRpZmljYXRlMB0GA1UdDgQWBBQpHgDq8Bv77ue7SicX
Vf+zEMa7eDAfBgNVHSMEGDAWgBRd4MCJBz9T6AbsoxzhvySqjFgvQjANBgkqhkiG
9w0BAQUFAAOBgQADxe9mFw/cLnB36QtyotSj+mXn2SJ1q9P0CJXHD+yKkChNCcGs
22TWYXXAnVkm3W4+03M6wNYqqqvNEB3jIVNXQnbpqsP2BFbEKbbuKOo0iZ77ih7T
LD4PwVz/TkSlUtg8D2T8IX7tFx4SvIwpNdDcPZcsLX5tMtG3sm3TgUWSQA==
-----END CERTIFICATE-----
