Certificate:
    Data:
        Version: 3 (0x2)
        Serial Number: 13001181552037769559 (0xb46d79bd0592b157)
    Signature Algorithm: sha1WithRSAEncryption
        Issuer: C=CN, ST=Henan, O=XD, OU=shanyuan, CN=ca/emailAddress=a@b.c
        Validity
            Not Before: Apr 25 10:43:38 2015 GMT
            Not After : Apr 24 10:43:38 2018 GMT
        Subject: C=CN, ST=Henan, O=XD, OU=shanyuan, CN=ca/emailAddress=a@b.c
        Subject Public Key Info:
            Public Key Algorithm: rsaEncryption
                Public-Key: (1024 bit)
                Modulus:
                    00:ca:fb:ad:ab:c3:2c:e5:0a:06:77:3d:3f:7a:a7:
                    3a:49:9b:a0:1d:d8:f2:c0:06:24:55:a5:d2:93:45:
                    0d:e3:76:0a:af:ea:3f:b2:f9:ad:a9:aa:08:0d:4b:
                    ff:61:3f:44:17:4f:26:35:3a:07:9a:35:88:ca:f2:
                    0b:17:b8:db:6e:c4:74:0b:61:2e:05:aa:1b:5a:4b:
                    2a:94:86:ee:b9:9f:5e:5d:46:81:d7:01:ae:88:8f:
                    f1:42:cd:74:da:11:a6:dd:9d:d6:bf:91:b9:ac:73:
                    4c:07:d8:09:6d:01:fd:75:51:aa:a0:f7:fb:dd:e8:
                    3d:ad:b8:98:d4:3f:fb:62:c1
                Exponent: 65537 (0x10001)
        X509v3 extensions:
            X509v3 Subject Key Identifier: 
                5D:E0:C0:89:07:3F:53:E8:06:EC:A3:1C:E1:BF:24:AA:8C:58:2F:42
            X509v3 Authority Key Identifier: 
                keyid:5D:E0:C0:89:07:3F:53:E8:06:EC:A3:1C:E1:BF:24:AA:8C:58:2F:42

            X509v3 Basic Constraints: 
                CA:TRUE
    Signature Algorithm: sha1WithRSAEncryption
         8c:cf:57:b3:0b:0c:73:67:7e:31:f8:d4:52:64:fd:d8:02:3d:
         3c:27:dc:fa:44:a7:0f:c9:aa:0c:a5:93:96:7f:cd:29:11:9b:
         b2:da:fe:50:de:df:e5:5e:20:39:52:fc:bc:bf:21:3b:fb:65:
         60:c5:69:7e:db:db:0b:1d:53:d5:06:6f:93:71:70:e7:56:88:
         44:e3:5f:cb:b6:0c:91:29:d9:78:f3:f4:77:43:b5:ba:5c:f1:
         a0:d5:ea:b1:4c:44:fb:08:83:b2:62:a8:ec:3e:32:4d:c7:71:
         90:92:45:94:c4:ec:0e:81:c0:08:2b:be:ea:e2:11:f6:4f:33:
         b7:3a
-----BEGIN CERTIFICATE-----
MIICjjCCAfegAwIBAgIJALRteb0FkrFXMA0GCSqGSIb3DQEBBQUAMGAxCzAJBgNV
BAYTAkNOMQ4wDAYDVQQIDAVIZW5hbjELMAkGA1UECgwCWEQxETAPBgNVBAsMCHNo
YW55dWFuMQswCQYDVQQDDAJjYTEUMBIGCSqGSIb3DQEJARYFYUBiLmMwHhcNMTUw
NDI1MTA0MzM4WhcNMTgwNDI0MTA0MzM4WjBgMQswCQYDVQQGEwJDTjEOMAwGA1UE
CAwFSGVuYW4xCzAJBgNVBAoMAlhEMREwDwYDVQQLDAhzaGFueXVhbjELMAkGA1UE
AwwCY2ExFDASBgkqhkiG9w0BCQEWBWFAYi5jMIGfMA0GCSqGSIb3DQEBAQUAA4GN
ADCBiQKBgQDK+62rwyzlCgZ3PT96pzpJm6Ad2PLABiRVpdKTRQ3jdgqv6j+y+a2p
qggNS/9hP0QXTyY1OgeaNYjK8gsXuNtuxHQLYS4FqhtaSyqUhu65n15dRoHXAa6I
j/FCzXTaEabdnda/kbmsc0wH2AltAf11Uaqg9/vd6D2tuJjUP/tiwQIDAQABo1Aw
TjAdBgNVHQ4EFgQUXeDAiQc/U+gG7KMc4b8kqoxYL0IwHwYDVR0jBBgwFoAUXeDA
iQc/U+gG7KMc4b8kqoxYL0IwDAYDVR0TBAUwAwEB/zANBgkqhkiG9w0BAQUFAAOB
gQCMz1ezCwxzZ34x+NRSZP3YAj08J9z6RKcPyaoMpZOWf80pEZuy2v5Q3t/lXiA5
Uvy8vyE7+2VgxWl+29sLHVPVBm+TcXDnVohE41/LtgyRKdl48/R3Q7W6XPGg1eqx
TET7CIOyYqjsPjJNx3GQkkWUxOwOgcAIK77q4hH2TzO3Og==
-----END CERTIFICATE-----
